target datalayout = "e-m:e-p270:32:32-p271:32:32-p272:64:64-i64:64-i128:128-f80:128-n8:16:32:64-S128"
target triple = "x86_64-pc-linux-gnu"

%struct.RenderPassHashTableKey = type { [4 x %struct.RenderPassColorTargetDescription], i32, [4 x i32], i32, %struct.RenderPassDepthStencilTargetDescription, i32 }
%struct.RenderPassColorTargetDescription = type { i32, i32, i32 }
%struct.RenderPassDepthStencilTargetDescription = type { i32, i32, i32, i32, i32 }

; Function Attrs: nounwind uwtable
define internal i32 @VULKAN_INTERNAL_RenderPassHashFunction(ptr noundef %0, ptr noundef %1) #0 {
  %3 = alloca ptr, align 8
  %4 = alloca ptr, align 8
  %5 = alloca ptr, align 8
  %6 = alloca i32, align 4
  %7 = alloca i32, align 4
  %8 = alloca i32, align 4
  %9 = alloca i32, align 4
  store ptr %0, ptr %3, align 8
  store ptr %1, ptr %4, align 8
  call void @llvm.lifetime.start.p0(i64 8, ptr %5) #9
  %10 = load ptr, ptr %4, align 8
  store ptr %10, ptr %5, align 8
  call void @llvm.lifetime.start.p0(i64 4, ptr %6) #9
  store i32 31, ptr %6, align 4
  call void @llvm.lifetime.start.p0(i64 4, ptr %7) #9
  store i32 1, ptr %7, align 4
  call void @llvm.lifetime.start.p0(i64 4, ptr %8) #9
  store i32 0, ptr %8, align 4
  br label %11

11:                                               ; preds = %49, %2
  %12 = load i32, ptr %8, align 4
  %13 = load ptr, ptr %5, align 8
  %14 = getelementptr inbounds nuw %struct.RenderPassHashTableKey, ptr %13, i32 0, i32 1
  %15 = load i32, ptr %14, align 4
  %16 = icmp ult i32 %12, %15
  br i1 %16, label %18, label %17

17:                                               ; preds = %11
  call void @llvm.lifetime.end.p0(i64 4, ptr %8) #9
  br label %52

18:                                               ; preds = %11
  %19 = load i32, ptr %7, align 4
  %20 = mul i32 %19, 31
  %21 = load ptr, ptr %5, align 8
  %22 = getelementptr inbounds nuw %struct.RenderPassHashTableKey, ptr %21, i32 0, i32 0
  %23 = load i32, ptr %8, align 4
  %24 = zext i32 %23 to i64
  %25 = getelementptr inbounds nuw [4 x %struct.RenderPassColorTargetDescription], ptr %22, i64 0, i64 %24
  %26 = getelementptr inbounds nuw %struct.RenderPassColorTargetDescription, ptr %25, i32 0, i32 1
  %27 = load i32, ptr %26, align 4
  %28 = add i32 %20, %27
  store i32 %28, ptr %7, align 4
  %29 = load i32, ptr %7, align 4
  %30 = mul i32 %29, 31
  %31 = load ptr, ptr %5, align 8
  %32 = getelementptr inbounds nuw %struct.RenderPassHashTableKey, ptr %31, i32 0, i32 0
  %33 = load i32, ptr %8, align 4
  %34 = zext i32 %33 to i64
  %35 = getelementptr inbounds nuw [4 x %struct.RenderPassColorTargetDescription], ptr %32, i64 0, i64 %34
  %36 = getelementptr inbounds nuw %struct.RenderPassColorTargetDescription, ptr %35, i32 0, i32 2
  %37 = load i32, ptr %36, align 4
  %38 = add i32 %30, %37
  store i32 %38, ptr %7, align 4
  %39 = load i32, ptr %7, align 4
  %40 = mul i32 %39, 31
  %41 = load ptr, ptr %5, align 8
  %42 = getelementptr inbounds nuw %struct.RenderPassHashTableKey, ptr %41, i32 0, i32 0
  %43 = load i32, ptr %8, align 4
  %44 = zext i32 %43 to i64
  %45 = getelementptr inbounds nuw [4 x %struct.RenderPassColorTargetDescription], ptr %42, i64 0, i64 %44
  %46 = getelementptr inbounds nuw %struct.RenderPassColorTargetDescription, ptr %45, i32 0, i32 0
  %47 = load i32, ptr %46, align 4
  %48 = add i32 %40, %47
  store i32 %48, ptr %7, align 4
  br label %49

49:                                               ; preds = %18
  %50 = load i32, ptr %8, align 4
  %51 = add i32 %50, 1
  store i32 %51, ptr %8, align 4
  br label %11, !llvm.loop !69

52:                                               ; preds = %17
  call void @llvm.lifetime.start.p0(i64 4, ptr %9) #9
  store i32 0, ptr %9, align 4
  br label %53

53:                                               ; preds = %70, %52
  %54 = load i32, ptr %9, align 4
  %55 = load ptr, ptr %5, align 8
  %56 = getelementptr inbounds nuw %struct.RenderPassHashTableKey, ptr %55, i32 0, i32 3
  %57 = load i32, ptr %56, align 4
  %58 = icmp ult i32 %54, %57
  br i1 %58, label %60, label %59

59:                                               ; preds = %53
  call void @llvm.lifetime.end.p0(i64 4, ptr %9) #9
  br label %73

60:                                               ; preds = %53
  %61 = load i32, ptr %7, align 4
  %62 = mul i32 %61, 31
  %63 = load ptr, ptr %5, align 8
  %64 = getelementptr inbounds nuw %struct.RenderPassHashTableKey, ptr %63, i32 0, i32 2
  %65 = load i32, ptr %9, align 4
  %66 = zext i32 %65 to i64
  %67 = getelementptr inbounds nuw [4 x i32], ptr %64, i64 0, i64 %66
  %68 = load i32, ptr %67, align 4
  %69 = add i32 %62, %68
  store i32 %69, ptr %7, align 4
  br label %70

70:                                               ; preds = %60
  %71 = load i32, ptr %9, align 4
  %72 = add i32 %71, 1
  store i32 %72, ptr %9, align 4
  br label %53, !llvm.loop !70

73:                                               ; preds = %59
  %74 = load i32, ptr %7, align 4
  %75 = mul i32 %74, 31
  %76 = load ptr, ptr %5, align 8
  %77 = getelementptr inbounds nuw %struct.RenderPassHashTableKey, ptr %76, i32 0, i32 4
  %78 = getelementptr inbounds nuw %struct.RenderPassDepthStencilTargetDescription, ptr %77, i32 0, i32 1
  %79 = load i32, ptr %78, align 4
  %80 = add i32 %75, %79
  store i32 %80, ptr %7, align 4
  %81 = load i32, ptr %7, align 4
  %82 = mul i32 %81, 31
  %83 = load ptr, ptr %5, align 8
  %84 = getelementptr inbounds nuw %struct.RenderPassHashTableKey, ptr %83, i32 0, i32 4
  %85 = getelementptr inbounds nuw %struct.RenderPassDepthStencilTargetDescription, ptr %84, i32 0, i32 2
  %86 = load i32, ptr %85, align 4
  %87 = add i32 %82, %86
  store i32 %87, ptr %7, align 4
  %88 = load i32, ptr %7, align 4
  %89 = mul i32 %88, 31
  %90 = load ptr, ptr %5, align 8
  %91 = getelementptr inbounds nuw %struct.RenderPassHashTableKey, ptr %90, i32 0, i32 4
  %92 = getelementptr inbounds nuw %struct.RenderPassDepthStencilTargetDescription, ptr %91, i32 0, i32 3
  %93 = load i32, ptr %92, align 4
  %94 = add i32 %89, %93
  store i32 %94, ptr %7, align 4
  %95 = load i32, ptr %7, align 4
  %96 = mul i32 %95, 31
  %97 = load ptr, ptr %5, align 8
  %98 = getelementptr inbounds nuw %struct.RenderPassHashTableKey, ptr %97, i32 0, i32 4
  %99 = getelementptr inbounds nuw %struct.RenderPassDepthStencilTargetDescription, ptr %98, i32 0, i32 4
  %100 = load i32, ptr %99, align 4
  %101 = add i32 %96, %100
  store i32 %101, ptr %7, align 4
  %102 = load i32, ptr %7, align 4
  %103 = mul i32 %102, 31
  %104 = load ptr, ptr %5, align 8
  %105 = getelementptr inbounds nuw %struct.RenderPassHashTableKey, ptr %104, i32 0, i32 4
  %106 = getelementptr inbounds nuw %struct.RenderPassDepthStencilTargetDescription, ptr %105, i32 0, i32 0
  %107 = load i32, ptr %106, align 4
  %108 = add i32 %103, %107
  store i32 %108, ptr %7, align 4
  %109 = load i32, ptr %7, align 4
  %110 = mul i32 %109, 31
  %111 = load ptr, ptr %5, align 8
  %112 = getelementptr inbounds nuw %struct.RenderPassHashTableKey, ptr %111, i32 0, i32 5
  %113 = load i32, ptr %112, align 4
  %114 = add i32 %110, %113
  store i32 %114, ptr %7, align 4
  %115 = load i32, ptr %7, align 4
  call void @llvm.lifetime.end.p0(i64 4, ptr %7) #9
  call void @llvm.lifetime.end.p0(i64 4, ptr %6) #9
  call void @llvm.lifetime.end.p0(i64 8, ptr %5) #9
  ret i32 %115
}