; Function Attrs: nofree norecurse nosync nounwind memory(argmem: read) uwtable
define internal i32 @VULKAN_INTERNAL_RenderPassHashFunction(ptr readnone captures(none) %0, ptr noundef readonly captures(none) %1) #11 {
  %3 = getelementptr inbounds nuw i8, ptr %1, i64 48
  %4 = load i32, ptr %3, align 4
  %.not = icmp eq i32 %4, 0
  br i1 %.not, label %.preheader, label %.lr.ph.preheader

.lr.ph.preheader:                                 ; preds = %2
  %wide.trip.count = zext i32 %4 to i64
  br label %.lr.ph

.preheader:                                       ; preds = %.lr.ph, %2
  %.032.lcssa = phi i32 [ 1, %2 ], [ %19, %.lr.ph ]
  %5 = getelementptr inbounds nuw i8, ptr %1, i64 68
  %6 = load i32, ptr %5, align 4
  %.not39 = icmp eq i32 %6, 0
  br i1 %.not39, label %._crit_edge, label %.lr.ph37

.lr.ph37:                                         ; preds = %.preheader
  %7 = getelementptr inbounds nuw i8, ptr %1, i64 52
  %wide.trip.count45 = zext i32 %6 to i64
  br label %44

.lr.ph:                                           ; preds = %.lr.ph.preheader, %.lr.ph
  %indvars.iv = phi i64 [ 0, %.lr.ph.preheader ], [ %indvars.iv.next, %.lr.ph ]
  %.03233 = phi i32 [ 1, %.lr.ph.preheader ], [ %19, %.lr.ph ]
  %8 = mul i32 %.03233, 31
  %9 = getelementptr inbounds nuw [4 x %struct.RenderPassColorTargetDescription], ptr %1, i64 0, i64 %indvars.iv
  %10 = getelementptr inbounds nuw i8, ptr %9, i64 4
  %11 = load i32, ptr %10, align 4
  %12 = add i32 %11, %8
  %13 = mul i32 %12, 31
  %14 = getelementptr inbounds nuw i8, ptr %9, i64 8
  %15 = load i32, ptr %14, align 4
  %16 = add i32 %13, %15
  %17 = mul i32 %16, 31
  %18 = load i32, ptr %9, align 4
  %19 = add i32 %17, %18
  %indvars.iv.next = add nuw nsw i64 %indvars.iv, 1
  %exitcond.not = icmp eq i64 %indvars.iv.next, %wide.trip.count
  br i1 %exitcond.not, label %.preheader, label %.lr.ph, !llvm.loop !89

._crit_edge:                                      ; preds = %44, %.preheader
  %.1.lcssa = phi i32 [ %.032.lcssa, %.preheader ], [ %48, %44 ]
  %20 = mul i32 %.1.lcssa, 31
  %21 = getelementptr inbounds nuw i8, ptr %1, i64 72
  %22 = getelementptr inbounds nuw i8, ptr %1, i64 76
  %23 = load i32, ptr %22, align 4
  %24 = add i32 %23, %20
  %25 = mul i32 %24, 31
  %26 = getelementptr inbounds nuw i8, ptr %1, i64 80
  %27 = load i32, ptr %26, align 4
  %28 = add i32 %25, %27
  %29 = mul i32 %28, 31
  %30 = getelementptr inbounds nuw i8, ptr %1, i64 84
  %31 = load i32, ptr %30, align 4
  %32 = add i32 %29, %31
  %33 = mul i32 %32, 31
  %34 = getelementptr inbounds nuw i8, ptr %1, i64 88
  %35 = load i32, ptr %34, align 4
  %36 = add i32 %33, %35
  %37 = mul i32 %36, 31
  %38 = load i32, ptr %21, align 4
  %39 = add i32 %37, %38
  %40 = mul i32 %39, 31
  %41 = getelementptr inbounds nuw i8, ptr %1, i64 92
  %42 = load i32, ptr %41, align 4
  %43 = add i32 %40, %42
  ret i32 %43

44:                                               ; preds = %.lr.ph37, %44
  %indvars.iv42 = phi i64 [ 0, %.lr.ph37 ], [ %indvars.iv.next43, %44 ]
  %.135 = phi i32 [ %.032.lcssa, %.lr.ph37 ], [ %48, %44 ]
  %45 = mul i32 %.135, 31
  %46 = getelementptr inbounds nuw [4 x i32], ptr %7, i64 0, i64 %indvars.iv42
  %47 = load i32, ptr %46, align 4
  %48 = add i32 %47, %45
  %indvars.iv.next43 = add nuw nsw i64 %indvars.iv42, 1
  %exitcond46.not = icmp eq i64 %indvars.iv.next43, %wide.trip.count45
  br i1 %exitcond46.not, label %._crit_edge, label %44, !llvm.loop !90
}